; Function Attrs: mustprogress uwtable
define internal void @_ZN7rocksdb12_GLOBAL__N_19VectorRep8Iterator11SeekToFirstEv(ptr nocapture noundef nonnull align 8 dereferenceable(81) %this) unnamed_addr #3 align 2 {
entry:
  tail call fastcc void @_ZNK7rocksdb12_GLOBAL__N_19VectorRep8Iterator6DoSortEv(ptr noundef nonnull align 8 dereferenceable(81) %this)
  %bucket_ = getelementptr inbounds i8, ptr %this, i64 16
  %0 = load ptr, ptr %bucket_, align 8
  %1 = load ptr, ptr %0, align 8
  %cit_ = getelementptr inbounds i8, ptr %this, i64 32
  %2 = ptrtoint ptr %1 to i64
  store i64 %2, ptr %cit_, align 8
  ret void
}